target datalayout = "e-m:e-p270:32:32-p271:32:32-p272:64:64-i64:64-i128:128-f80:128-n8:16:32:64-S128"
target triple = "x86_64-pc-linux-gnu"

%"class.icu_77::number::impl::DecimalQuantity" = type <{ %"class.icu_77::IFixedDecimal", i8, [3 x i8], i32, i32, i8, i8, [2 x i8], double, i32, i32, i32, i32, %union.anon, i8, i8, [6 x i8] }>
%"class.icu_77::IFixedDecimal" = type { ptr }
%union.anon = type { %struct.anon }
%struct.anon = type { ptr, i32 }

; Function Attrs: mustprogress nounwind uwtable
define noundef signext i8 @_ZNK6icu_776number4impl15DecimalQuantity11getDigitPosEi(ptr noundef nonnull align 8 dereferenceable(66) %0, i32 noundef %1) #0 align 2 {
  %3 = alloca i8, align 1
  %4 = alloca ptr, align 8
  %5 = alloca i32, align 4
  store ptr %0, ptr %4, align 8, !tbaa !25
  store i32 %1, ptr %5, align 4, !tbaa !14
  %6 = load ptr, ptr %4, align 8
  %7 = getelementptr inbounds nuw %"class.icu_77::number::impl::DecimalQuantity", ptr %6, i32 0, i32 14
  %8 = load i8, ptr %7, align 8, !tbaa !37, !range !40, !noundef !41
  %9 = trunc i8 %8 to i1
  br i1 %9, label %10, label %27

10:                                               ; preds = %2
  %11 = load i32, ptr %5, align 4, !tbaa !14
  %12 = icmp slt i32 %11, 0
  br i1 %12, label %18, label %13

13:                                               ; preds = %10
  %14 = load i32, ptr %5, align 4, !tbaa !14
  %15 = getelementptr inbounds nuw %"class.icu_77::number::impl::DecimalQuantity", ptr %6, i32 0, i32 4
  %16 = load i32, ptr %15, align 8, !tbaa !44
  %17 = icmp sge i32 %14, %16
  br i1 %17, label %18, label %19

18:                                               ; preds = %13, %10
  store i8 0, ptr %3, align 1
  br label %43

19:                                               ; preds = %13
  %20 = getelementptr inbounds nuw %"class.icu_77::number::impl::DecimalQuantity", ptr %6, i32 0, i32 13
  %21 = getelementptr inbounds nuw %struct.anon, ptr %20, i32 0, i32 0
  %22 = load ptr, ptr %21, align 8, !tbaa !42
  %23 = load i32, ptr %5, align 4, !tbaa !14
  %24 = sext i32 %23 to i64
  %25 = getelementptr inbounds i8, ptr %22, i64 %24
  %26 = load i8, ptr %25, align 1, !tbaa !42
  store i8 %26, ptr %3, align 1
  br label %43

27:                                               ; preds = %2
  %28 = load i32, ptr %5, align 4, !tbaa !14
  %29 = icmp slt i32 %28, 0
  br i1 %29, label %33, label %30

30:                                               ; preds = %27
  %31 = load i32, ptr %5, align 4, !tbaa !14
  %32 = icmp sge i32 %31, 16
  br i1 %32, label %33, label %34

33:                                               ; preds = %30, %27
  store i8 0, ptr %3, align 1
  br label %43

34:                                               ; preds = %30
  %35 = getelementptr inbounds nuw %"class.icu_77::number::impl::DecimalQuantity", ptr %6, i32 0, i32 13
  %36 = load i64, ptr %35, align 8, !tbaa !42
  %37 = load i32, ptr %5, align 4, !tbaa !14
  %38 = mul nsw i32 %37, 4
  %39 = zext i32 %38 to i64
  %40 = lshr i64 %36, %39
  %41 = and i64 %40, 15
  %42 = trunc i64 %41 to i8
  store i8 %42, ptr %3, align 1
  br label %43

43:                                               ; preds = %34, %33, %19, %18
  %44 = load i8, ptr %3, align 1
  ret i8 %44
}

; Function Attrs: inlinehint mustprogress nounwind uwtable
define linkonce_odr noundef nonnull align 4 dereferenceable(4) ptr @_ZSt3minIiERKT_S2_S2_(ptr noundef nonnull align 4 dereferenceable(4) %0, ptr noundef nonnull align 4 dereferenceable(4) %1) #2 comdat {
  %3 = alloca ptr, align 8
  %4 = alloca ptr, align 8
  %5 = alloca ptr, align 8
  store ptr %0, ptr %4, align 8, !tbaa !20
  store ptr %1, ptr %5, align 8, !tbaa !20
  %6 = load ptr, ptr %5, align 8, !tbaa !20
  %7 = load i32, ptr %6, align 4, !tbaa !14
  %8 = load ptr, ptr %4, align 8, !tbaa !20
  %9 = load i32, ptr %8, align 4, !tbaa !14
  %10 = icmp slt i32 %7, %9
  br i1 %10, label %11, label %13

11:                                               ; preds = %2
  %12 = load ptr, ptr %5, align 8, !tbaa !20
  store ptr %12, ptr %3, align 8
  br label %15

13:                                               ; preds = %2
  %14 = load ptr, ptr %4, align 8, !tbaa !20
  store ptr %14, ptr %3, align 8
  br label %15

15:                                               ; preds = %13, %11
  %16 = load ptr, ptr %3, align 8
  ret ptr %16
}

; Function Attrs: mustprogress uwtable
define noundef i64 @_ZNK6icu_776number4impl15DecimalQuantity14toFractionLongEb(ptr noundef nonnull align 8 dereferenceable(66) %0, i1 noundef zeroext %1) #1 align 2 {
  %3 = alloca ptr, align 8
  %4 = alloca i8, align 1
  %5 = alloca i64, align 8
  %6 = alloca i32, align 4
  %7 = alloca i32, align 4
  store ptr %0, ptr %3, align 8, !tbaa !25
  %8 = zext i1 %1 to i8
  store i8 %8, ptr %4, align 1, !tbaa !58
  %9 = load ptr, ptr %3, align 8
  call void @llvm.lifetime.start.p0(i64 8, ptr %5) #14
  store i64 0, ptr %5, align 8, !tbaa !18
  call void @llvm.lifetime.start.p0(i64 4, ptr %6) #14
  %10 = getelementptr inbounds nuw %"class.icu_77::number::impl::DecimalQuantity", ptr %9, i32 0, i32 12
  %11 = load i32, ptr %10, align 4, !tbaa !36
  %12 = sub nsw i32 -1, %11
  store i32 %12, ptr %6, align 4, !tbaa !14
  call void @llvm.lifetime.start.p0(i64 4, ptr %7) #14
  %13 = getelementptr inbounds nuw %"class.icu_77::number::impl::DecimalQuantity", ptr %9, i32 0, i32 3
  %14 = load i32, ptr %13, align 4, !tbaa !43
  store i32 %14, ptr %7, align 4, !tbaa !14
  %15 = load i8, ptr %4, align 1, !tbaa !58, !range !40, !noundef !41
  %16 = trunc i8 %15 to i1
  br i1 %16, label %17, label %21

17:                                               ; preds = %2
  %18 = getelementptr inbounds nuw %"class.icu_77::number::impl::DecimalQuantity", ptr %9, i32 0, i32 11
  %19 = call noundef nonnull align 4 dereferenceable(4) ptr @_ZSt3minIiERKT_S2_S2_(ptr noundef nonnull align 4 dereferenceable(4) %7, ptr noundef nonnull align 4 dereferenceable(4) %18)
  %20 = load i32, ptr %19, align 4, !tbaa !14
  store i32 %20, ptr %7, align 4, !tbaa !14
  br label %21

21:                                               ; preds = %17, %2
  br label %22

22:                                               ; preds = %42, %21
  %23 = load i32, ptr %6, align 4, !tbaa !14
  %24 = load i32, ptr %7, align 4, !tbaa !14
  %25 = icmp sge i32 %23, %24
  br i1 %25, label %26, label %30

26:                                               ; preds = %22
  %27 = load i64, ptr %5, align 8, !tbaa !18
  %28 = uitofp i64 %27 to x86_fp80
  %29 = fcmp ole x86_fp80 %28, 0xK403ADE0B6B3A76400000
  br label %30

30:                                               ; preds = %26, %22
  %31 = phi i1 [ false, %22 ], [ %29, %26 ]
  br i1 %31, label %32, label %45

32:                                               ; preds = %30
  %33 = load i64, ptr %5, align 8, !tbaa !18
  %34 = mul i64 %33, 10
  %35 = load i32, ptr %6, align 4, !tbaa !14
  %36 = getelementptr inbounds nuw %"class.icu_77::number::impl::DecimalQuantity", ptr %9, i32 0, i32 3
  %37 = load i32, ptr %36, align 4, !tbaa !43
  %38 = sub nsw i32 %35, %37
  %39 = call noundef signext i8 @_ZNK6icu_776number4impl15DecimalQuantity11getDigitPosEi(ptr noundef nonnull align 8 dereferenceable(66) %9, i32 noundef %38)
  %40 = sext i8 %39 to i64
  %41 = add i64 %34, %40
  store i64 %41, ptr %5, align 8, !tbaa !18
  br label %42

42:                                               ; preds = %32
  %43 = load i32, ptr %6, align 4, !tbaa !14
  %44 = add nsw i32 %43, -1
  store i32 %44, ptr %6, align 4, !tbaa !14
  br label %22, !llvm.loop !65

45:                                               ; preds = %30
  %46 = load i8, ptr %4, align 1, !tbaa !58, !range !40, !noundef !41
  %47 = trunc i8 %46 to i1
  br i1 %47, label %62, label %48

48:                                               ; preds = %45
  br label %49

49:                                               ; preds = %58, %48
  %50 = load i64, ptr %5, align 8, !tbaa !18
  %51 = icmp ugt i64 %50, 0
  br i1 %51, label %52, label %56

52:                                               ; preds = %49
  %53 = load i64, ptr %5, align 8, !tbaa !18
  %54 = urem i64 %53, 10
  %55 = icmp eq i64 %54, 0
  br label %56

56:                                               ; preds = %52, %49
  %57 = phi i1 [ false, %49 ], [ %55, %52 ]
  br i1 %57, label %58, label %61

58:                                               ; preds = %56
  %59 = load i64, ptr %5, align 8, !tbaa !18
  %60 = udiv i64 %59, 10
  store i64 %60, ptr %5, align 8, !tbaa !18
  br label %49, !llvm.loop !66

61:                                               ; preds = %56
  br label %62

62:                                               ; preds = %61, %45
  %63 = load i64, ptr %5, align 8, !tbaa !18
  call void @llvm.lifetime.end.p0(i64 4, ptr %7) #14
  call void @llvm.lifetime.end.p0(i64 4, ptr %6) #14
  call void @llvm.lifetime.end.p0(i64 8, ptr %5) #14
  ret i64 %63
}