; Function Attrs: mustprogress nofree norecurse nosync nounwind willreturn memory(read, inaccessiblemem: none) uwtable
define noundef range(i64 -128, -8446744073709551488) i64 @_ZNK6icu_776number4impl15DecimalQuantity14toFractionLongEb(ptr noundef nonnull readonly align 8 captures(none) dereferenceable(66) %0, i1 noundef zeroext %1) local_unnamed_addr #18 align 2 {
  %3 = getelementptr inbounds nuw i8, ptr %0, i64 44
  %4 = load i32, ptr %3, align 4, !tbaa !32
  %5 = xor i32 %4, -1
  %6 = getelementptr inbounds nuw i8, ptr %0, i64 12
  %7 = load i32, ptr %6, align 4, !tbaa !27
  %8 = getelementptr inbounds nuw i8, ptr %0, i64 40
  %9 = load i32, ptr %8, align 8
  %.sroa.speculated = tail call i32 @llvm.smin.i32(i32 %9, i32 %7)
  %.020 = select i1 %1, i32 %.sroa.speculated, i32 %7
  %.not = icmp sgt i32 %.020, %5
  br i1 %.not, label %.critedge, label %.lr.ph

.lr.ph:                                           ; preds = %2
  %10 = getelementptr inbounds nuw i8, ptr %0, i64 64
  %11 = load i8, ptr %10, align 8, !tbaa !22, !range !24, !noundef !25
  %12 = trunc nuw i8 %11 to i1
  %13 = getelementptr inbounds nuw i8, ptr %0, i64 48
  %14 = load i64, ptr %13, align 8
  %15 = getelementptr inbounds nuw i8, ptr %0, i64 16
  %16 = load i32, ptr %15, align 8
  %.cast = inttoptr i64 %14 to ptr
  br i1 %12, label %.lr.ph.split.us, label %.lr.ph.split

.lr.ph.split.us:                                  ; preds = %.lr.ph, %_ZNK6icu_776number4impl15DecimalQuantity11getDigitPosEi.exit.us
  %.022.us = phi i32 [ %26, %_ZNK6icu_776number4impl15DecimalQuantity11getDigitPosEi.exit.us ], [ %5, %.lr.ph ]
  %.01321.us = phi i64 [ %25, %_ZNK6icu_776number4impl15DecimalQuantity11getDigitPosEi.exit.us ], [ 0, %.lr.ph ]
  %17 = mul nuw i64 %.01321.us, 10
  %18 = sub nsw i32 %.022.us, %7
  %19 = icmp sgt i32 %18, -1
  %.not.i.us = icmp slt i32 %18, %16
  %or.cond10.i.us = select i1 %19, i1 %.not.i.us, i1 false
  br i1 %or.cond10.i.us, label %20, label %_ZNK6icu_776number4impl15DecimalQuantity11getDigitPosEi.exit.us

20:                                               ; preds = %.lr.ph.split.us
  %21 = zext nneg i32 %18 to i64
  %22 = getelementptr inbounds nuw i8, ptr %.cast, i64 %21
  %23 = load i8, ptr %22, align 1, !tbaa !26
  %24 = sext i8 %23 to i64
  br label %_ZNK6icu_776number4impl15DecimalQuantity11getDigitPosEi.exit.us

_ZNK6icu_776number4impl15DecimalQuantity11getDigitPosEi.exit.us: ; preds = %20, %.lr.ph.split.us
  %.0.i.us = phi i64 [ %24, %20 ], [ 0, %.lr.ph.split.us ]
  %25 = add i64 %.0.i.us, %17
  %26 = add nsw i32 %.022.us, -1
  %27 = icmp sgt i32 %.022.us, %.020
  %28 = icmp ult i64 %25, 1000000000000000001
  %29 = select i1 %27, i1 %28, i1 false
  br i1 %29, label %.lr.ph.split.us, label %._crit_edge, !llvm.loop !56

.lr.ph.split:                                     ; preds = %.lr.ph, %.lr.ph.split
  %.022 = phi i32 [ %38, %.lr.ph.split ], [ %5, %.lr.ph ]
  %.01321 = phi i64 [ %37, %.lr.ph.split ], [ 0, %.lr.ph ]
  %30 = mul nuw i64 %.01321, 10
  %31 = sub nsw i32 %.022, %7
  %or.cond.i = icmp ugt i32 %31, 15
  %32 = shl nuw nsw i32 %31, 2
  %33 = zext nneg i32 %32 to i64
  %34 = lshr i64 %14, %33
  %35 = and i64 %34, 15
  %36 = select i1 %or.cond.i, i64 0, i64 %35
  %37 = add nuw i64 %36, %30
  %38 = add nsw i32 %.022, -1
  %39 = icmp sgt i32 %.022, %.020
  %40 = icmp ult i64 %37, 1000000000000000001
  %41 = select i1 %39, i1 %40, i1 false
  br i1 %41, label %.lr.ph.split, label %._crit_edge, !llvm.loop !56

._crit_edge:                                      ; preds = %.lr.ph.split, %_ZNK6icu_776number4impl15DecimalQuantity11getDigitPosEi.exit.us
  %.013.lcssa = phi i64 [ %25, %_ZNK6icu_776number4impl15DecimalQuantity11getDigitPosEi.exit.us ], [ %37, %.lr.ph.split ]
  %42 = icmp eq i64 %.013.lcssa, 0
  %or.cond.not = select i1 %1, i1 true, i1 %42
  br i1 %or.cond.not, label %.critedge, label %.preheader

.preheader:                                       ; preds = %._crit_edge, %46
  %.2 = phi i64 [ %44, %46 ], [ %.013.lcssa, %._crit_edge ]
  %43 = urem i64 %.2, 10
  %44 = udiv i64 %.2, 10
  %45 = icmp eq i64 %43, 0
  br i1 %45, label %46, label %.critedge

46:                                               ; preds = %.preheader
  %.old1.not = icmp ult i64 %.2, 10
  br i1 %.old1.not, label %.critedge, label %.preheader

.critedge:                                        ; preds = %.preheader, %46, %2, %._crit_edge
  %.1 = phi i64 [ %.013.lcssa, %._crit_edge ], [ 0, %2 ], [ %.2, %.preheader ], [ 0, %46 ]
  ret i64 %.1
}